ARM GAS  C:\Users\Alex\AppData\Local\Temp\ccB4e0Ng.s 			page 1


   1              		.cpu cortex-m0
   2              		.arch armv6s-m
   3              		.fpu softvfp
   4              		.eabi_attribute 20, 1
   5              		.eabi_attribute 21, 1
   6              		.eabi_attribute 23, 3
   7              		.eabi_attribute 24, 1
   8              		.eabi_attribute 25, 1
   9              		.eabi_attribute 26, 1
  10              		.eabi_attribute 30, 1
  11              		.eabi_attribute 34, 0
  12              		.eabi_attribute 18, 4
  13              		.file	"stm32f0xx_hal_msp.c"
  14              		.text
  15              	.Ltext0:
  16              		.cfi_sections	.debug_frame
  17              		.file 1 "Core/Src/stm32f0xx_hal_msp.c"
  18              		.section	.text.HAL_MspInit,"ax",%progbits
  19              		.align	1
  20              		.global	HAL_MspInit
  21              		.syntax unified
  22              		.code	16
  23              		.thumb_func
  25              	HAL_MspInit:
  26              	.LFB40:
   1:Core/Src/stm32f0xx_hal_msp.c **** 
   2:Core/Src/stm32f0xx_hal_msp.c **** /* USER CODE BEGIN Header */
   3:Core/Src/stm32f0xx_hal_msp.c **** /**
   4:Core/Src/stm32f0xx_hal_msp.c ****   ******************************************************************************
   5:Core/Src/stm32f0xx_hal_msp.c ****   * @file         stm32f0xx_hal_msp.c
   6:Core/Src/stm32f0xx_hal_msp.c ****   * @brief        This file provides code for the MSP Initialization
   7:Core/Src/stm32f0xx_hal_msp.c ****   *               and de-Initialization codes.
   8:Core/Src/stm32f0xx_hal_msp.c ****   ******************************************************************************
   9:Core/Src/stm32f0xx_hal_msp.c ****   * @attention
  10:Core/Src/stm32f0xx_hal_msp.c ****   *
  11:Core/Src/stm32f0xx_hal_msp.c ****   * Copyright (c) 2025 STMicroelectronics.
  12:Core/Src/stm32f0xx_hal_msp.c ****   * All rights reserved.
  13:Core/Src/stm32f0xx_hal_msp.c ****   *
  14:Core/Src/stm32f0xx_hal_msp.c ****   * This software is licensed under terms that can be found in the LICENSE file
  15:Core/Src/stm32f0xx_hal_msp.c ****   * in the root directory of this software component.
  16:Core/Src/stm32f0xx_hal_msp.c ****   * If no LICENSE file comes with this software, it is provided AS-IS.
  17:Core/Src/stm32f0xx_hal_msp.c ****   *
  18:Core/Src/stm32f0xx_hal_msp.c ****   ******************************************************************************
  19:Core/Src/stm32f0xx_hal_msp.c ****   */
  20:Core/Src/stm32f0xx_hal_msp.c **** /* USER CODE END Header */
  21:Core/Src/stm32f0xx_hal_msp.c **** 
  22:Core/Src/stm32f0xx_hal_msp.c **** /* Includes ------------------------------------------------------------------*/
  23:Core/Src/stm32f0xx_hal_msp.c **** #include "main.h"
  24:Core/Src/stm32f0xx_hal_msp.c **** /* USER CODE BEGIN Includes */
  25:Core/Src/stm32f0xx_hal_msp.c **** 
  26:Core/Src/stm32f0xx_hal_msp.c **** /* USER CODE END Includes */
  27:Core/Src/stm32f0xx_hal_msp.c **** 
  28:Core/Src/stm32f0xx_hal_msp.c **** /* Private typedef -----------------------------------------------------------*/
  29:Core/Src/stm32f0xx_hal_msp.c **** /* USER CODE BEGIN TD */
  30:Core/Src/stm32f0xx_hal_msp.c **** 
  31:Core/Src/stm32f0xx_hal_msp.c **** /* USER CODE END TD */
  32:Core/Src/stm32f0xx_hal_msp.c **** 
ARM GAS  C:\Users\Alex\AppData\Local\Temp\ccB4e0Ng.s 			page 2


  33:Core/Src/stm32f0xx_hal_msp.c **** /* Private define ------------------------------------------------------------*/
  34:Core/Src/stm32f0xx_hal_msp.c **** /* USER CODE BEGIN Define */
  35:Core/Src/stm32f0xx_hal_msp.c **** 
  36:Core/Src/stm32f0xx_hal_msp.c **** /* USER CODE END Define */
  37:Core/Src/stm32f0xx_hal_msp.c **** 
  38:Core/Src/stm32f0xx_hal_msp.c **** /* Private macro -------------------------------------------------------------*/
  39:Core/Src/stm32f0xx_hal_msp.c **** /* USER CODE BEGIN Macro */
  40:Core/Src/stm32f0xx_hal_msp.c **** 
  41:Core/Src/stm32f0xx_hal_msp.c **** /* USER CODE END Macro */
  42:Core/Src/stm32f0xx_hal_msp.c **** 
  43:Core/Src/stm32f0xx_hal_msp.c **** /* Private variables ---------------------------------------------------------*/
  44:Core/Src/stm32f0xx_hal_msp.c **** /* USER CODE BEGIN PV */
  45:Core/Src/stm32f0xx_hal_msp.c **** 
  46:Core/Src/stm32f0xx_hal_msp.c **** /* USER CODE END PV */
  47:Core/Src/stm32f0xx_hal_msp.c **** 
  48:Core/Src/stm32f0xx_hal_msp.c **** /* Private function prototypes -----------------------------------------------*/
  49:Core/Src/stm32f0xx_hal_msp.c **** /* USER CODE BEGIN PFP */
  50:Core/Src/stm32f0xx_hal_msp.c **** 
  51:Core/Src/stm32f0xx_hal_msp.c **** /* USER CODE END PFP */
  52:Core/Src/stm32f0xx_hal_msp.c **** 
  53:Core/Src/stm32f0xx_hal_msp.c **** /* External functions --------------------------------------------------------*/
  54:Core/Src/stm32f0xx_hal_msp.c **** /* USER CODE BEGIN ExternalFunctions */
  55:Core/Src/stm32f0xx_hal_msp.c **** 
  56:Core/Src/stm32f0xx_hal_msp.c **** /* USER CODE END ExternalFunctions */
  57:Core/Src/stm32f0xx_hal_msp.c **** 
  58:Core/Src/stm32f0xx_hal_msp.c **** /* USER CODE BEGIN 0 */
  59:Core/Src/stm32f0xx_hal_msp.c **** 
  60:Core/Src/stm32f0xx_hal_msp.c **** /* USER CODE END 0 */
  61:Core/Src/stm32f0xx_hal_msp.c **** /**
  62:Core/Src/stm32f0xx_hal_msp.c ****   * Initializes the Global MSP.
  63:Core/Src/stm32f0xx_hal_msp.c ****   */
  64:Core/Src/stm32f0xx_hal_msp.c **** void HAL_MspInit(void)
  65:Core/Src/stm32f0xx_hal_msp.c **** {
  27              		.loc 1 65 1 view -0
  28              		.cfi_startproc
  29              		@ args = 0, pretend = 0, frame = 8
  30              		@ frame_needed = 0, uses_anonymous_args = 0
  31              		@ link register save eliminated.
  32 0000 82B0     		sub	sp, sp, #8
  33              	.LCFI0:
  34              		.cfi_def_cfa_offset 8
  66:Core/Src/stm32f0xx_hal_msp.c **** 
  67:Core/Src/stm32f0xx_hal_msp.c ****   /* USER CODE BEGIN MspInit 0 */
  68:Core/Src/stm32f0xx_hal_msp.c **** 
  69:Core/Src/stm32f0xx_hal_msp.c ****   /* USER CODE END MspInit 0 */
  70:Core/Src/stm32f0xx_hal_msp.c **** 
  71:Core/Src/stm32f0xx_hal_msp.c ****   __HAL_RCC_SYSCFG_CLK_ENABLE();
  35              		.loc 1 71 3 view .LVU1
  36              	.LBB2:
  37              		.loc 1 71 3 view .LVU2
  38              		.loc 1 71 3 view .LVU3
  39 0002 0A4B     		ldr	r3, .L2
  40 0004 9969     		ldr	r1, [r3, #24]
  41 0006 0122     		movs	r2, #1
  42 0008 1143     		orrs	r1, r2
  43 000a 9961     		str	r1, [r3, #24]
  44              		.loc 1 71 3 view .LVU4
ARM GAS  C:\Users\Alex\AppData\Local\Temp\ccB4e0Ng.s 			page 3


  45 000c 9969     		ldr	r1, [r3, #24]
  46 000e 0A40     		ands	r2, r1
  47 0010 0092     		str	r2, [sp]
  48              		.loc 1 71 3 view .LVU5
  49 0012 009A     		ldr	r2, [sp]
  50              	.LBE2:
  51              		.loc 1 71 3 view .LVU6
  72:Core/Src/stm32f0xx_hal_msp.c ****   __HAL_RCC_PWR_CLK_ENABLE();
  52              		.loc 1 72 3 view .LVU7
  53              	.LBB3:
  54              		.loc 1 72 3 view .LVU8
  55              		.loc 1 72 3 view .LVU9
  56 0014 DA69     		ldr	r2, [r3, #28]
  57 0016 8021     		movs	r1, #128
  58 0018 4905     		lsls	r1, r1, #21
  59 001a 0A43     		orrs	r2, r1
  60 001c DA61     		str	r2, [r3, #28]
  61              		.loc 1 72 3 view .LVU10
  62 001e DB69     		ldr	r3, [r3, #28]
  63 0020 0B40     		ands	r3, r1
  64 0022 0193     		str	r3, [sp, #4]
  65              		.loc 1 72 3 view .LVU11
  66 0024 019B     		ldr	r3, [sp, #4]
  67              	.LBE3:
  68              		.loc 1 72 3 view .LVU12
  73:Core/Src/stm32f0xx_hal_msp.c **** 
  74:Core/Src/stm32f0xx_hal_msp.c ****   /* System interrupt init*/
  75:Core/Src/stm32f0xx_hal_msp.c **** 
  76:Core/Src/stm32f0xx_hal_msp.c ****   /* USER CODE BEGIN MspInit 1 */
  77:Core/Src/stm32f0xx_hal_msp.c **** 
  78:Core/Src/stm32f0xx_hal_msp.c ****   /* USER CODE END MspInit 1 */
  79:Core/Src/stm32f0xx_hal_msp.c **** }
  69              		.loc 1 79 1 is_stmt 0 view .LVU13
  70 0026 02B0     		add	sp, sp, #8
  71              		@ sp needed
  72 0028 7047     		bx	lr
  73              	.L3:
  74 002a C046     		.align	2
  75              	.L2:
  76 002c 00100240 		.word	1073876992
  77              		.cfi_endproc
  78              	.LFE40:
  80              		.section	.text.HAL_UART_MspInit,"ax",%progbits
  81              		.align	1
  82              		.global	HAL_UART_MspInit
  83              		.syntax unified
  84              		.code	16
  85              		.thumb_func
  87              	HAL_UART_MspInit:
  88              	.LVL0:
  89              	.LFB41:
  80:Core/Src/stm32f0xx_hal_msp.c **** 
  81:Core/Src/stm32f0xx_hal_msp.c **** /**
  82:Core/Src/stm32f0xx_hal_msp.c **** * @brief UART MSP Initialization
  83:Core/Src/stm32f0xx_hal_msp.c **** * This function configures the hardware resources used in this example
  84:Core/Src/stm32f0xx_hal_msp.c **** * @param huart: UART handle pointer
  85:Core/Src/stm32f0xx_hal_msp.c **** * @retval None
ARM GAS  C:\Users\Alex\AppData\Local\Temp\ccB4e0Ng.s 			page 4


  86:Core/Src/stm32f0xx_hal_msp.c **** */
  87:Core/Src/stm32f0xx_hal_msp.c **** void HAL_UART_MspInit(UART_HandleTypeDef* huart)
  88:Core/Src/stm32f0xx_hal_msp.c **** {
  90              		.loc 1 88 1 is_stmt 1 view -0
  91              		.cfi_startproc
  92              		@ args = 0, pretend = 0, frame = 32
  93              		@ frame_needed = 0, uses_anonymous_args = 0
  94              		.loc 1 88 1 is_stmt 0 view .LVU15
  95 0000 10B5     		push	{r4, lr}
  96              	.LCFI1:
  97              		.cfi_def_cfa_offset 8
  98              		.cfi_offset 4, -8
  99              		.cfi_offset 14, -4
 100 0002 88B0     		sub	sp, sp, #32
 101              	.LCFI2:
 102              		.cfi_def_cfa_offset 40
 103 0004 0400     		movs	r4, r0
  89:Core/Src/stm32f0xx_hal_msp.c ****   GPIO_InitTypeDef GPIO_InitStruct = {0};
 104              		.loc 1 89 3 is_stmt 1 view .LVU16
 105              		.loc 1 89 20 is_stmt 0 view .LVU17
 106 0006 1422     		movs	r2, #20
 107 0008 0021     		movs	r1, #0
 108 000a 03A8     		add	r0, sp, #12
 109              	.LVL1:
 110              		.loc 1 89 20 view .LVU18
 111 000c FFF7FEFF 		bl	memset
 112              	.LVL2:
  90:Core/Src/stm32f0xx_hal_msp.c ****   if(huart->Instance==USART1)
 113              		.loc 1 90 3 is_stmt 1 view .LVU19
 114              		.loc 1 90 11 is_stmt 0 view .LVU20
 115 0010 2268     		ldr	r2, [r4]
 116              		.loc 1 90 5 view .LVU21
 117 0012 174B     		ldr	r3, .L7
 118 0014 9A42     		cmp	r2, r3
 119 0016 01D0     		beq	.L6
 120              	.L4:
  91:Core/Src/stm32f0xx_hal_msp.c ****   {
  92:Core/Src/stm32f0xx_hal_msp.c ****   /* USER CODE BEGIN USART1_MspInit 0 */
  93:Core/Src/stm32f0xx_hal_msp.c **** 
  94:Core/Src/stm32f0xx_hal_msp.c ****   /* USER CODE END USART1_MspInit 0 */
  95:Core/Src/stm32f0xx_hal_msp.c ****     /* Peripheral clock enable */
  96:Core/Src/stm32f0xx_hal_msp.c ****     __HAL_RCC_USART1_CLK_ENABLE();
  97:Core/Src/stm32f0xx_hal_msp.c **** 
  98:Core/Src/stm32f0xx_hal_msp.c ****     __HAL_RCC_GPIOA_CLK_ENABLE();
  99:Core/Src/stm32f0xx_hal_msp.c ****     /**USART1 GPIO Configuration
 100:Core/Src/stm32f0xx_hal_msp.c ****     PA2     ------> USART1_TX
 101:Core/Src/stm32f0xx_hal_msp.c ****     PA3     ------> USART1_RX
 102:Core/Src/stm32f0xx_hal_msp.c ****     */
 103:Core/Src/stm32f0xx_hal_msp.c ****     GPIO_InitStruct.Pin = GPIO_PIN_2|GPIO_PIN_3;
 104:Core/Src/stm32f0xx_hal_msp.c ****     GPIO_InitStruct.Mode = GPIO_MODE_AF_PP;
 105:Core/Src/stm32f0xx_hal_msp.c ****     GPIO_InitStruct.Pull = GPIO_NOPULL;
 106:Core/Src/stm32f0xx_hal_msp.c ****     GPIO_InitStruct.Speed = GPIO_SPEED_FREQ_HIGH;
 107:Core/Src/stm32f0xx_hal_msp.c ****     GPIO_InitStruct.Alternate = GPIO_AF1_USART1;
 108:Core/Src/stm32f0xx_hal_msp.c ****     HAL_GPIO_Init(GPIOA, &GPIO_InitStruct);
 109:Core/Src/stm32f0xx_hal_msp.c **** 
 110:Core/Src/stm32f0xx_hal_msp.c ****     /* USART1 interrupt Init */
 111:Core/Src/stm32f0xx_hal_msp.c ****     HAL_NVIC_SetPriority(USART1_IRQn, 0, 0);
ARM GAS  C:\Users\Alex\AppData\Local\Temp\ccB4e0Ng.s 			page 5


 112:Core/Src/stm32f0xx_hal_msp.c ****     HAL_NVIC_EnableIRQ(USART1_IRQn);
 113:Core/Src/stm32f0xx_hal_msp.c ****   /* USER CODE BEGIN USART1_MspInit 1 */
 114:Core/Src/stm32f0xx_hal_msp.c **** 
 115:Core/Src/stm32f0xx_hal_msp.c ****   /* USER CODE END USART1_MspInit 1 */
 116:Core/Src/stm32f0xx_hal_msp.c **** 
 117:Core/Src/stm32f0xx_hal_msp.c ****   }
 118:Core/Src/stm32f0xx_hal_msp.c **** 
 119:Core/Src/stm32f0xx_hal_msp.c **** }
 121              		.loc 1 119 1 view .LVU22
 122 0018 08B0     		add	sp, sp, #32
 123              		@ sp needed
 124              	.LVL3:
 125              		.loc 1 119 1 view .LVU23
 126 001a 10BD     		pop	{r4, pc}
 127              	.LVL4:
 128              	.L6:
  96:Core/Src/stm32f0xx_hal_msp.c **** 
 129              		.loc 1 96 5 is_stmt 1 view .LVU24
 130              	.LBB4:
  96:Core/Src/stm32f0xx_hal_msp.c **** 
 131              		.loc 1 96 5 view .LVU25
  96:Core/Src/stm32f0xx_hal_msp.c **** 
 132              		.loc 1 96 5 view .LVU26
 133 001c 154B     		ldr	r3, .L7+4
 134 001e 9A69     		ldr	r2, [r3, #24]
 135 0020 8021     		movs	r1, #128
 136 0022 C901     		lsls	r1, r1, #7
 137 0024 0A43     		orrs	r2, r1
 138 0026 9A61     		str	r2, [r3, #24]
  96:Core/Src/stm32f0xx_hal_msp.c **** 
 139              		.loc 1 96 5 view .LVU27
 140 0028 9A69     		ldr	r2, [r3, #24]
 141 002a 0A40     		ands	r2, r1
 142 002c 0192     		str	r2, [sp, #4]
  96:Core/Src/stm32f0xx_hal_msp.c **** 
 143              		.loc 1 96 5 view .LVU28
 144 002e 019A     		ldr	r2, [sp, #4]
 145              	.LBE4:
  96:Core/Src/stm32f0xx_hal_msp.c **** 
 146              		.loc 1 96 5 view .LVU29
  98:Core/Src/stm32f0xx_hal_msp.c ****     /**USART1 GPIO Configuration
 147              		.loc 1 98 5 view .LVU30
 148              	.LBB5:
  98:Core/Src/stm32f0xx_hal_msp.c ****     /**USART1 GPIO Configuration
 149              		.loc 1 98 5 view .LVU31
  98:Core/Src/stm32f0xx_hal_msp.c ****     /**USART1 GPIO Configuration
 150              		.loc 1 98 5 view .LVU32
 151 0030 5A69     		ldr	r2, [r3, #20]
 152 0032 8021     		movs	r1, #128
 153 0034 8902     		lsls	r1, r1, #10
 154 0036 0A43     		orrs	r2, r1
 155 0038 5A61     		str	r2, [r3, #20]
  98:Core/Src/stm32f0xx_hal_msp.c ****     /**USART1 GPIO Configuration
 156              		.loc 1 98 5 view .LVU33
 157 003a 5B69     		ldr	r3, [r3, #20]
 158 003c 0B40     		ands	r3, r1
 159 003e 0293     		str	r3, [sp, #8]
ARM GAS  C:\Users\Alex\AppData\Local\Temp\ccB4e0Ng.s 			page 6


  98:Core/Src/stm32f0xx_hal_msp.c ****     /**USART1 GPIO Configuration
 160              		.loc 1 98 5 view .LVU34
 161 0040 029B     		ldr	r3, [sp, #8]
 162              	.LBE5:
  98:Core/Src/stm32f0xx_hal_msp.c ****     /**USART1 GPIO Configuration
 163              		.loc 1 98 5 view .LVU35
 103:Core/Src/stm32f0xx_hal_msp.c ****     GPIO_InitStruct.Mode = GPIO_MODE_AF_PP;
 164              		.loc 1 103 5 view .LVU36
 103:Core/Src/stm32f0xx_hal_msp.c ****     GPIO_InitStruct.Mode = GPIO_MODE_AF_PP;
 165              		.loc 1 103 25 is_stmt 0 view .LVU37
 166 0042 03A9     		add	r1, sp, #12
 167 0044 0C23     		movs	r3, #12
 168 0046 0393     		str	r3, [sp, #12]
 104:Core/Src/stm32f0xx_hal_msp.c ****     GPIO_InitStruct.Pull = GPIO_NOPULL;
 169              		.loc 1 104 5 is_stmt 1 view .LVU38
 104:Core/Src/stm32f0xx_hal_msp.c ****     GPIO_InitStruct.Pull = GPIO_NOPULL;
 170              		.loc 1 104 26 is_stmt 0 view .LVU39
 171 0048 0A3B     		subs	r3, r3, #10
 172 004a 4B60     		str	r3, [r1, #4]
 105:Core/Src/stm32f0xx_hal_msp.c ****     GPIO_InitStruct.Speed = GPIO_SPEED_FREQ_HIGH;
 173              		.loc 1 105 5 is_stmt 1 view .LVU40
 106:Core/Src/stm32f0xx_hal_msp.c ****     GPIO_InitStruct.Alternate = GPIO_AF1_USART1;
 174              		.loc 1 106 5 view .LVU41
 106:Core/Src/stm32f0xx_hal_msp.c ****     GPIO_InitStruct.Alternate = GPIO_AF1_USART1;
 175              		.loc 1 106 27 is_stmt 0 view .LVU42
 176 004c 0133     		adds	r3, r3, #1
 177 004e CB60     		str	r3, [r1, #12]
 107:Core/Src/stm32f0xx_hal_msp.c ****     HAL_GPIO_Init(GPIOA, &GPIO_InitStruct);
 178              		.loc 1 107 5 is_stmt 1 view .LVU43
 107:Core/Src/stm32f0xx_hal_msp.c ****     HAL_GPIO_Init(GPIOA, &GPIO_InitStruct);
 179              		.loc 1 107 31 is_stmt 0 view .LVU44
 180 0050 023B     		subs	r3, r3, #2
 181 0052 0B61     		str	r3, [r1, #16]
 108:Core/Src/stm32f0xx_hal_msp.c **** 
 182              		.loc 1 108 5 is_stmt 1 view .LVU45
 183 0054 9020     		movs	r0, #144
 184 0056 C005     		lsls	r0, r0, #23
 185 0058 FFF7FEFF 		bl	HAL_GPIO_Init
 186              	.LVL5:
 111:Core/Src/stm32f0xx_hal_msp.c ****     HAL_NVIC_EnableIRQ(USART1_IRQn);
 187              		.loc 1 111 5 view .LVU46
 188 005c 0022     		movs	r2, #0
 189 005e 0021     		movs	r1, #0
 190 0060 1B20     		movs	r0, #27
 191 0062 FFF7FEFF 		bl	HAL_NVIC_SetPriority
 192              	.LVL6:
 112:Core/Src/stm32f0xx_hal_msp.c ****   /* USER CODE BEGIN USART1_MspInit 1 */
 193              		.loc 1 112 5 view .LVU47
 194 0066 1B20     		movs	r0, #27
 195 0068 FFF7FEFF 		bl	HAL_NVIC_EnableIRQ
 196              	.LVL7:
 197              		.loc 1 119 1 is_stmt 0 view .LVU48
 198 006c D4E7     		b	.L4
 199              	.L8:
 200 006e C046     		.align	2
 201              	.L7:
 202 0070 00380140 		.word	1073821696
ARM GAS  C:\Users\Alex\AppData\Local\Temp\ccB4e0Ng.s 			page 7


 203 0074 00100240 		.word	1073876992
 204              		.cfi_endproc
 205              	.LFE41:
 207              		.section	.text.HAL_UART_MspDeInit,"ax",%progbits
 208              		.align	1
 209              		.global	HAL_UART_MspDeInit
 210              		.syntax unified
 211              		.code	16
 212              		.thumb_func
 214              	HAL_UART_MspDeInit:
 215              	.LVL8:
 216              	.LFB42:
 120:Core/Src/stm32f0xx_hal_msp.c **** 
 121:Core/Src/stm32f0xx_hal_msp.c **** /**
 122:Core/Src/stm32f0xx_hal_msp.c **** * @brief UART MSP De-Initialization
 123:Core/Src/stm32f0xx_hal_msp.c **** * This function freeze the hardware resources used in this example
 124:Core/Src/stm32f0xx_hal_msp.c **** * @param huart: UART handle pointer
 125:Core/Src/stm32f0xx_hal_msp.c **** * @retval None
 126:Core/Src/stm32f0xx_hal_msp.c **** */
 127:Core/Src/stm32f0xx_hal_msp.c **** void HAL_UART_MspDeInit(UART_HandleTypeDef* huart)
 128:Core/Src/stm32f0xx_hal_msp.c **** {
 217              		.loc 1 128 1 is_stmt 1 view -0
 218              		.cfi_startproc
 219              		@ args = 0, pretend = 0, frame = 0
 220              		@ frame_needed = 0, uses_anonymous_args = 0
 221              		.loc 1 128 1 is_stmt 0 view .LVU50
 222 0000 10B5     		push	{r4, lr}
 223              	.LCFI3:
 224              		.cfi_def_cfa_offset 8
 225              		.cfi_offset 4, -8
 226              		.cfi_offset 14, -4
 129:Core/Src/stm32f0xx_hal_msp.c ****   if(huart->Instance==USART1)
 227              		.loc 1 129 3 is_stmt 1 view .LVU51
 228              		.loc 1 129 11 is_stmt 0 view .LVU52
 229 0002 0268     		ldr	r2, [r0]
 230              		.loc 1 129 5 view .LVU53
 231 0004 084B     		ldr	r3, .L12
 232 0006 9A42     		cmp	r2, r3
 233 0008 00D0     		beq	.L11
 234              	.LVL9:
 235              	.L9:
 130:Core/Src/stm32f0xx_hal_msp.c ****   {
 131:Core/Src/stm32f0xx_hal_msp.c ****   /* USER CODE BEGIN USART1_MspDeInit 0 */
 132:Core/Src/stm32f0xx_hal_msp.c **** 
 133:Core/Src/stm32f0xx_hal_msp.c ****   /* USER CODE END USART1_MspDeInit 0 */
 134:Core/Src/stm32f0xx_hal_msp.c ****     /* Peripheral clock disable */
 135:Core/Src/stm32f0xx_hal_msp.c ****     __HAL_RCC_USART1_CLK_DISABLE();
 136:Core/Src/stm32f0xx_hal_msp.c **** 
 137:Core/Src/stm32f0xx_hal_msp.c ****     /**USART1 GPIO Configuration
 138:Core/Src/stm32f0xx_hal_msp.c ****     PA2     ------> USART1_TX
 139:Core/Src/stm32f0xx_hal_msp.c ****     PA3     ------> USART1_RX
 140:Core/Src/stm32f0xx_hal_msp.c ****     */
 141:Core/Src/stm32f0xx_hal_msp.c ****     HAL_GPIO_DeInit(GPIOA, GPIO_PIN_2|GPIO_PIN_3);
 142:Core/Src/stm32f0xx_hal_msp.c **** 
 143:Core/Src/stm32f0xx_hal_msp.c ****     /* USART1 interrupt DeInit */
 144:Core/Src/stm32f0xx_hal_msp.c ****     HAL_NVIC_DisableIRQ(USART1_IRQn);
 145:Core/Src/stm32f0xx_hal_msp.c ****   /* USER CODE BEGIN USART1_MspDeInit 1 */
ARM GAS  C:\Users\Alex\AppData\Local\Temp\ccB4e0Ng.s 			page 8


 146:Core/Src/stm32f0xx_hal_msp.c **** 
 147:Core/Src/stm32f0xx_hal_msp.c ****   /* USER CODE END USART1_MspDeInit 1 */
 148:Core/Src/stm32f0xx_hal_msp.c ****   }
 149:Core/Src/stm32f0xx_hal_msp.c **** 
 150:Core/Src/stm32f0xx_hal_msp.c **** }
 236              		.loc 1 150 1 view .LVU54
 237              		@ sp needed
 238 000a 10BD     		pop	{r4, pc}
 239              	.LVL10:
 240              	.L11:
 135:Core/Src/stm32f0xx_hal_msp.c **** 
 241              		.loc 1 135 5 is_stmt 1 view .LVU55
 242 000c 074A     		ldr	r2, .L12+4
 243 000e 9369     		ldr	r3, [r2, #24]
 244 0010 0749     		ldr	r1, .L12+8
 245 0012 0B40     		ands	r3, r1
 246 0014 9361     		str	r3, [r2, #24]
 141:Core/Src/stm32f0xx_hal_msp.c **** 
 247              		.loc 1 141 5 view .LVU56
 248 0016 9020     		movs	r0, #144
 249              	.LVL11:
 141:Core/Src/stm32f0xx_hal_msp.c **** 
 250              		.loc 1 141 5 is_stmt 0 view .LVU57
 251 0018 0C21     		movs	r1, #12
 252 001a C005     		lsls	r0, r0, #23
 253 001c FFF7FEFF 		bl	HAL_GPIO_DeInit
 254              	.LVL12:
 144:Core/Src/stm32f0xx_hal_msp.c ****   /* USER CODE BEGIN USART1_MspDeInit 1 */
 255              		.loc 1 144 5 is_stmt 1 view .LVU58
 256 0020 1B20     		movs	r0, #27
 257 0022 FFF7FEFF 		bl	HAL_NVIC_DisableIRQ
 258              	.LVL13:
 259              		.loc 1 150 1 is_stmt 0 view .LVU59
 260 0026 F0E7     		b	.L9
 261              	.L13:
 262              		.align	2
 263              	.L12:
 264 0028 00380140 		.word	1073821696
 265 002c 00100240 		.word	1073876992
 266 0030 FFBFFFFF 		.word	-16385
 267              		.cfi_endproc
 268              	.LFE42:
 270              		.text
 271              	.Letext0:
 272              		.file 2 "C:/Users/Alex/STM32Cube/Repository/STM32Cube_FW_F0_V1.11.5/Drivers/CMSIS/Device/ST/STM32F
 273              		.file 3 "C:/Program Files (x86)/Arm GNU Toolchain arm-none-eabi/14.2 rel1/arm-none-eabi/include/ma
 274              		.file 4 "C:/Program Files (x86)/Arm GNU Toolchain arm-none-eabi/14.2 rel1/arm-none-eabi/include/sy
 275              		.file 5 "C:/Users/Alex/STM32Cube/Repository/STM32Cube_FW_F0_V1.11.5/Drivers/STM32F0xx_HAL_Driver/I
 276              		.file 6 "C:/Users/Alex/STM32Cube/Repository/STM32Cube_FW_F0_V1.11.5/Drivers/STM32F0xx_HAL_Driver/I
 277              		.file 7 "C:/Users/Alex/STM32Cube/Repository/STM32Cube_FW_F0_V1.11.5/Drivers/STM32F0xx_HAL_Driver/I
 278              		.file 8 "C:/Users/Alex/STM32Cube/Repository/STM32Cube_FW_F0_V1.11.5/Drivers/STM32F0xx_HAL_Driver/I
 279              		.file 9 "C:/Users/Alex/STM32Cube/Repository/STM32Cube_FW_F0_V1.11.5/Drivers/STM32F0xx_HAL_Driver/I
 280              		.file 10 "<built-in>"
ARM GAS  C:\Users\Alex\AppData\Local\Temp\ccB4e0Ng.s 			page 9

